target datalayout = "e-m:e-p270:32:32-p271:32:32-p272:64:64-i64:64-i128:128-f80:128-n8:16:32:64-S128"
target triple = "x86_64-pc-linux-gnu"

@sane_ctype = external constant [256 x i8], align 16

; Function Attrs: nounwind uwtable
define internal i32 @skip_imap_list_l(ptr noundef %0, i32 noundef %1) #0 {
  %3 = alloca i32, align 4
  %4 = alloca ptr, align 8
  %5 = alloca i32, align 4
  %6 = alloca ptr, align 8
  %7 = alloca i32, align 4
  store ptr %0, ptr %4, align 8, !tbaa !8
  store i32 %1, ptr %5, align 4, !tbaa !4
  call void @llvm.lifetime.start.p0(i64 8, ptr %6) #11
  %8 = load ptr, ptr %4, align 8, !tbaa !8
  %9 = load ptr, ptr %8, align 8, !tbaa !29
  store ptr %9, ptr %6, align 8, !tbaa !29
  br label %10

10:                                               ; preds = %115, %2
  br label %11

11:                                               ; preds = %20, %10
  %12 = load ptr, ptr %6, align 8, !tbaa !29
  %13 = load i8, ptr %12, align 1, !tbaa !39
  %14 = zext i8 %13 to i64
  %15 = getelementptr inbounds nuw [256 x i8], ptr @sane_ctype, i64 0, i64 %14
  %16 = load i8, ptr %15, align 1, !tbaa !39
  %17 = zext i8 %16 to i32
  %18 = and i32 %17, 1
  %19 = icmp ne i32 %18, 0
  br i1 %19, label %20, label %23

20:                                               ; preds = %11
  %21 = load ptr, ptr %6, align 8, !tbaa !29
  %22 = getelementptr inbounds nuw i8, ptr %21, i32 1
  store ptr %22, ptr %6, align 8, !tbaa !29
  br label %11, !llvm.loop !151

23:                                               ; preds = %11
  %24 = load i32, ptr %5, align 4, !tbaa !4
  %25 = icmp ne i32 %24, 0
  br i1 %25, label %26, label %34

26:                                               ; preds = %23
  %27 = load ptr, ptr %6, align 8, !tbaa !29
  %28 = load i8, ptr %27, align 1, !tbaa !39
  %29 = sext i8 %28 to i32
  %30 = icmp eq i32 %29, 41
  br i1 %30, label %31, label %34

31:                                               ; preds = %26
  %32 = load ptr, ptr %6, align 8, !tbaa !29
  %33 = getelementptr inbounds nuw i8, ptr %32, i32 1
  store ptr %33, ptr %6, align 8, !tbaa !29
  br label %116

34:                                               ; preds = %26, %23
  %35 = load ptr, ptr %6, align 8, !tbaa !29
  %36 = load i8, ptr %35, align 1, !tbaa !39
  %37 = sext i8 %36 to i32
  %38 = icmp eq i32 %37, 40
  br i1 %38, label %39, label %48

39:                                               ; preds = %34
  %40 = load ptr, ptr %6, align 8, !tbaa !29
  %41 = getelementptr inbounds nuw i8, ptr %40, i32 1
  store ptr %41, ptr %6, align 8, !tbaa !29
  %42 = load i32, ptr %5, align 4, !tbaa !4
  %43 = add nsw i32 %42, 1
  %44 = call i32 @skip_imap_list_l(ptr noundef %6, i32 noundef %43)
  %45 = icmp ne i32 %44, 0
  br i1 %45, label %46, label %47

46:                                               ; preds = %39
  br label %119

47:                                               ; preds = %39
  br label %106

48:                                               ; preds = %34
  %49 = load ptr, ptr %6, align 8, !tbaa !29
  %50 = load i8, ptr %49, align 1, !tbaa !39
  %51 = sext i8 %50 to i32
  %52 = icmp eq i32 %51, 34
  br i1 %52, label %53, label %73

53:                                               ; preds = %48
  %54 = load ptr, ptr %6, align 8, !tbaa !29
  %55 = getelementptr inbounds nuw i8, ptr %54, i32 1
  store ptr %55, ptr %6, align 8, !tbaa !29
  br label %56

56:                                               ; preds = %67, %53
  %57 = load ptr, ptr %6, align 8, !tbaa !29
  %58 = load i8, ptr %57, align 1, !tbaa !39
  %59 = sext i8 %58 to i32
  %60 = icmp ne i32 %59, 34
  br i1 %60, label %61, label %70

61:                                               ; preds = %56
  %62 = load ptr, ptr %6, align 8, !tbaa !29
  %63 = load i8, ptr %62, align 1, !tbaa !39
  %64 = icmp ne i8 %63, 0
  br i1 %64, label %66, label %65

65:                                               ; preds = %61
  br label %119

66:                                               ; preds = %61
  br label %67

67:                                               ; preds = %66
  %68 = load ptr, ptr %6, align 8, !tbaa !29
  %69 = getelementptr inbounds nuw i8, ptr %68, i32 1
  store ptr %69, ptr %6, align 8, !tbaa !29
  br label %56, !llvm.loop !152

70:                                               ; preds = %56
  %71 = load ptr, ptr %6, align 8, !tbaa !29
  %72 = getelementptr inbounds nuw i8, ptr %71, i32 1
  store ptr %72, ptr %6, align 8, !tbaa !29
  br label %105

73:                                               ; preds = %48
  br label %74

74:                                               ; preds = %101, %73
  %75 = load ptr, ptr %6, align 8, !tbaa !29
  %76 = load i8, ptr %75, align 1, !tbaa !39
  %77 = sext i8 %76 to i32
  %78 = icmp ne i32 %77, 0
  br i1 %78, label %79, label %89

79:                                               ; preds = %74
  %80 = load ptr, ptr %6, align 8, !tbaa !29
  %81 = load i8, ptr %80, align 1, !tbaa !39
  %82 = zext i8 %81 to i64
  %83 = getelementptr inbounds nuw [256 x i8], ptr @sane_ctype, i64 0, i64 %82
  %84 = load i8, ptr %83, align 1, !tbaa !39
  %85 = zext i8 %84 to i32
  %86 = and i32 %85, 1
  %87 = icmp ne i32 %86, 0
  %88 = xor i1 %87, true
  br label %89

89:                                               ; preds = %79, %74
  %90 = phi i1 [ false, %74 ], [ %88, %79 ]
  br i1 %90, label %91, label %104

91:                                               ; preds = %89
  %92 = load i32, ptr %5, align 4, !tbaa !4
  %93 = icmp ne i32 %92, 0
  br i1 %93, label %94, label %100

94:                                               ; preds = %91
  %95 = load ptr, ptr %6, align 8, !tbaa !29
  %96 = load i8, ptr %95, align 1, !tbaa !39
  %97 = sext i8 %96 to i32
  %98 = icmp eq i32 %97, 41
  br i1 %98, label %99, label %100

99:                                               ; preds = %94
  br label %104

100:                                              ; preds = %94, %91
  br label %101

101:                                              ; preds = %100
  %102 = load ptr, ptr %6, align 8, !tbaa !29
  %103 = getelementptr inbounds nuw i8, ptr %102, i32 1
  store ptr %103, ptr %6, align 8, !tbaa !29
  br label %74, !llvm.loop !153

104:                                              ; preds = %99, %89
  br label %105

105:                                              ; preds = %104, %70
  br label %106

106:                                              ; preds = %105, %47
  %107 = load i32, ptr %5, align 4, !tbaa !4
  %108 = icmp ne i32 %107, 0
  br i1 %108, label %110, label %109

109:                                              ; preds = %106
  br label %116

110:                                              ; preds = %106
  %111 = load ptr, ptr %6, align 8, !tbaa !29
  %112 = load i8, ptr %111, align 1, !tbaa !39
  %113 = icmp ne i8 %112, 0
  br i1 %113, label %115, label %114

114:                                              ; preds = %110
  br label %119

115:                                              ; preds = %110
  br label %10

116:                                              ; preds = %109, %31
  %117 = load ptr, ptr %6, align 8, !tbaa !29
  %118 = load ptr, ptr %4, align 8, !tbaa !8
  store ptr %117, ptr %118, align 8, !tbaa !29
  store i32 0, ptr %3, align 4
  store i32 1, ptr %7, align 4
  br label %120

119:                                              ; preds = %114, %65, %46
  store i32 -1, ptr %3, align 4
  store i32 1, ptr %7, align 4
  br label %120

120:                                              ; preds = %119, %116
  call void @llvm.lifetime.end.p0(i64 8, ptr %6) #11
  %121 = load i32, ptr %3, align 4
  ret i32 %121
}