; Function Attrs: nofree nosync nounwind memory(read, argmem: readwrite, inaccessiblemem: none) uwtable
define internal fastcc range(i32 -1, 1) i32 @skip_imap_list_l(ptr noundef nonnull captures(none) %0, i32 noundef %1) unnamed_addr #18 {
  %3 = alloca ptr, align 8
  call void @llvm.lifetime.start.p0(i64 8, ptr nonnull %3) #22
  %4 = load ptr, ptr %0, align 8, !tbaa !72
  store ptr %4, ptr %3, align 8, !tbaa !72
  %.not8.not = icmp eq i32 %1, 0
  %5 = add nsw i32 %1, 1
  br i1 %.not8.not, label %.split, label %.split.us.split

.split.us.split:                                  ; preds = %2, %.split.us.split.backedge
  %.promoted27.us = phi ptr [ %.promoted27.us.be, %.split.us.split.backedge ], [ %4, %2 ]
  %6 = load i8, ptr %.promoted27.us, align 1, !tbaa !26
  %7 = zext i8 %6 to i64
  %8 = getelementptr inbounds nuw [256 x i8], ptr @sane_ctype, i64 0, i64 %7
  %9 = load i8, ptr %8, align 1, !tbaa !26
  %10 = and i8 %9, 1
  %.not.us = icmp eq i8 %10, 0
  %11 = getelementptr inbounds nuw i8, ptr %.promoted27.us, i64 1
  br i1 %.not.us, label %12, label %.split.us.split.backedge

.split.us.split.backedge:                         ; preds = %.split.us.split, %.critedge.thread.us
  %.promoted27.us.be = phi ptr [ %11, %.split.us.split ], [ %29, %.critedge.thread.us ]
  br label %.split.us.split, !llvm.loop !123

12:                                               ; preds = %.split.us.split
  store ptr %.promoted27.us, ptr %3, align 8
  switch i8 %6, label %.lr.ph.us [
    i8 41, label %.loopexit19
    i8 40, label %16
    i8 34, label %.preheader17.us
    i8 0, label %.critedge.loopexit.us
  ]

.preheader17.us:                                  ; preds = %12, %.preheader17.us
  %.pn.us = phi ptr [ %storemerge.us, %.preheader17.us ], [ %.promoted27.us, %12 ]
  %storemerge.us = getelementptr inbounds nuw i8, ptr %.pn.us, i64 1
  %13 = load i8, ptr %storemerge.us, align 1, !tbaa !26
  switch i8 %13, label %.preheader17.us [
    i8 34, label %14
    i8 0, label %.loopexit18
  ], !llvm.loop !124

14:                                               ; preds = %.preheader17.us
  %15 = getelementptr inbounds nuw i8, ptr %.pn.us, i64 2
  store ptr %15, ptr %3, align 8, !tbaa !72
  br label %.critedge.thread.us

16:                                               ; preds = %12
  store ptr %11, ptr %3, align 8, !tbaa !72
  %17 = call fastcc i32 @skip_imap_list_l(ptr noundef %3, i32 noundef %5)
  %.not13.us = icmp eq i32 %17, 0
  br i1 %.not13.us, label %..critedge.thread.us_crit_edge, label %.loopexit18

..critedge.thread.us_crit_edge:                   ; preds = %16
  %.pre = load ptr, ptr %3, align 8, !tbaa !72
  br label %.critedge.thread.us

.lr.ph.us:                                        ; preds = %12, %26
  %18 = phi i8 [ %28, %26 ], [ %6, %12 ]
  %19 = phi ptr [ %27, %26 ], [ %.promoted27.us, %12 ]
  %20 = zext i8 %18 to i64
  %21 = getelementptr inbounds nuw [256 x i8], ptr @sane_ctype, i64 0, i64 %20
  %22 = load i8, ptr %21, align 1, !tbaa !26
  %23 = and i8 %22, 1
  %.not10.us34 = icmp eq i8 %23, 0
  br i1 %.not10.us34, label %24, label %.critedge.loopexit.us

24:                                               ; preds = %.lr.ph.us
  %25 = icmp eq i8 %18, 41
  br i1 %25, label %.critedge.thread.loopexit.us, label %26

26:                                               ; preds = %24
  %27 = getelementptr inbounds nuw i8, ptr %19, i64 1
  %28 = load i8, ptr %27, align 1, !tbaa !26
  %.not9.us35 = icmp eq i8 %28, 0
  br i1 %.not9.us35, label %.critedge.loopexit.us, label %.lr.ph.us, !llvm.loop !125

.critedge.thread.us:                              ; preds = %..critedge.thread.us_crit_edge, %14, %.critedge.loopexit.us, %.critedge.thread.loopexit.us
  %29 = phi ptr [ %.pre, %..critedge.thread.us_crit_edge ], [ %15, %14 ], [ %.lcssa28.us, %.critedge.loopexit.us ], [ %19, %.critedge.thread.loopexit.us ]
  %30 = load i8, ptr %29, align 1, !tbaa !26
  %.not14.us = icmp eq i8 %30, 0
  br i1 %.not14.us, label %.loopexit18, label %.split.us.split.backedge

.critedge.loopexit.us:                            ; preds = %26, %.lr.ph.us, %12
  %.lcssa28.us = phi ptr [ %.promoted27.us, %12 ], [ %19, %.lr.ph.us ], [ %27, %26 ]
  store ptr %.lcssa28.us, ptr %3, align 8
  br label %.critedge.thread.us

.critedge.thread.loopexit.us:                     ; preds = %24
  store ptr %19, ptr %3, align 8
  br label %.critedge.thread.us

.split:                                           ; preds = %2, %.split
  %.promoted27 = phi ptr [ %36, %.split ], [ %4, %2 ]
  %31 = load i8, ptr %.promoted27, align 1, !tbaa !26
  %32 = zext i8 %31 to i64
  %33 = getelementptr inbounds nuw [256 x i8], ptr @sane_ctype, i64 0, i64 %32
  %34 = load i8, ptr %33, align 1, !tbaa !26
  %35 = and i8 %34, 1
  %.not = icmp eq i8 %35, 0
  %36 = getelementptr inbounds nuw i8, ptr %.promoted27, i64 1
  br i1 %.not, label %37, label %.split, !llvm.loop !123

37:                                               ; preds = %.split
  switch i8 %31, label %.lr.ph [
    i8 40, label %47
    i8 34, label %.preheader17
    i8 0, label %.loopexit19
  ]

.lr.ph:                                           ; preds = %37, %44
  %38 = phi i8 [ %46, %44 ], [ %31, %37 ]
  %39 = phi ptr [ %45, %44 ], [ %.promoted27, %37 ]
  %40 = zext i8 %38 to i64
  %41 = getelementptr inbounds nuw [256 x i8], ptr @sane_ctype, i64 0, i64 %40
  %42 = load i8, ptr %41, align 1, !tbaa !26
  %43 = and i8 %42, 1
  %.not10.us = icmp eq i8 %43, 0
  br i1 %.not10.us, label %44, label %.loopexit19

44:                                               ; preds = %.lr.ph
  %45 = getelementptr inbounds nuw i8, ptr %39, i64 1
  %46 = load i8, ptr %45, align 1, !tbaa !26
  %.not9.us = icmp eq i8 %46, 0
  br i1 %.not9.us, label %.loopexit19, label %.lr.ph, !llvm.loop !125

47:                                               ; preds = %37
  store ptr %36, ptr %3, align 8, !tbaa !72
  %48 = call fastcc i32 @skip_imap_list_l(ptr noundef %3, i32 noundef %5)
  %.not13 = icmp eq i32 %48, 0
  br i1 %.not13, label %..loopexit19_crit_edge, label %.loopexit18

..loopexit19_crit_edge:                           ; preds = %47
  %.pre58 = load ptr, ptr %3, align 8, !tbaa !72
  br label %.loopexit19

.preheader17:                                     ; preds = %37, %.preheader17
  %.pn = phi ptr [ %storemerge, %.preheader17 ], [ %.promoted27, %37 ]
  %storemerge = getelementptr inbounds nuw i8, ptr %.pn, i64 1
  %49 = load i8, ptr %storemerge, align 1, !tbaa !26
  switch i8 %49, label %.preheader17 [
    i8 34, label %50
    i8 0, label %.loopexit18
  ], !llvm.loop !124

50:                                               ; preds = %.preheader17
  %51 = getelementptr inbounds nuw i8, ptr %.pn, i64 2
  br label %.loopexit19

.loopexit19:                                      ; preds = %12, %.lr.ph, %44, %37, %..loopexit19_crit_edge, %50
  %52 = phi ptr [ %.pre58, %..loopexit19_crit_edge ], [ %51, %50 ], [ %.promoted27, %37 ], [ %39, %.lr.ph ], [ %45, %44 ], [ %11, %12 ]
  store ptr %52, ptr %0, align 8, !tbaa !72
  br label %.loopexit18

.loopexit18:                                      ; preds = %.critedge.thread.us, %16, %.preheader17.us, %.preheader17, %47, %.loopexit19
  %.0 = phi i32 [ 0, %.loopexit19 ], [ -1, %47 ], [ -1, %.preheader17 ], [ -1, %.preheader17.us ], [ -1, %16 ], [ -1, %.critedge.thread.us ]
  call void @llvm.lifetime.end.p0(i64 8, ptr nonnull %3) #22
  ret i32 %.0
}